; Function Attrs: mustprogress nofree norecurse nosync nounwind willreturn memory(read, inaccessiblemem: none) uwtable
define hidden noundef i32 @_ZNK3smt9theory_pb9get_coeffEj(ptr noundef nonnull readonly align 8 captures(none) dereferenceable(968) %0, i32 noundef %1) local_unnamed_addr #11 align 2 {
  %3 = getelementptr inbounds nuw i8, ptr %0, i64 856
  %4 = load ptr, ptr %3, align 8, !tbaa !735
  %5 = icmp eq ptr %4, null
  br i1 %5, label %_ZNK6vectorIiLb0EjE3getEjRKi.exit.cont, label %_ZNK6vectorIiLb0EjE3getEjRKi.exit

_ZNK6vectorIiLb0EjE3getEjRKi.exit:                ; preds = %2
  %6 = getelementptr inbounds i8, ptr %4, i64 -4
  %7 = load i32, ptr %6, align 4, !tbaa !9
  %.not.i = icmp ult i32 %1, %7
  br i1 %.not.i, label %_ZNK6vectorIiLb0EjE3getEjRKi.exit.then, label %_ZNK6vectorIiLb0EjE3getEjRKi.exit.cont

_ZNK6vectorIiLb0EjE3getEjRKi.exit.then:           ; preds = %_ZNK6vectorIiLb0EjE3getEjRKi.exit
  %8 = zext i32 %1 to i64
  %9 = getelementptr inbounds nuw i32, ptr %4, i64 %8
  %.then.val = load i32, ptr %9, align 4, !tbaa !9
  br label %_ZNK6vectorIiLb0EjE3getEjRKi.exit.cont

_ZNK6vectorIiLb0EjE3getEjRKi.exit.cont:           ; preds = %2, %_ZNK6vectorIiLb0EjE3getEjRKi.exit, %_ZNK6vectorIiLb0EjE3getEjRKi.exit.then
  %10 = phi i32 [ %.then.val, %_ZNK6vectorIiLb0EjE3getEjRKi.exit.then ], [ 0, %_ZNK6vectorIiLb0EjE3getEjRKi.exit ], [ 0, %2 ]
  ret i32 %10
}